target datalayout = "e-m:e-p270:32:32-p271:32:32-p272:64:64-i64:64-i128:128-f80:128-n8:16:32:64-S128"
target triple = "x86_64-pc-linux-gnu"

%struct.LexState = type { ptr, ptr, %union.TValue, %union.TValue, ptr, ptr, i32, i32, i32, %struct.SBuf, ptr, ptr, i32, i32, ptr, ptr, ptr, ptr, i32, i32, ptr, i32, i32, i32, i32 }
%union.TValue = type { i64 }
%struct.SBuf = type { ptr, ptr, ptr, %struct.MRef }
%struct.MRef = type { i64 }
%struct.FuncState = type { ptr, ptr, ptr, ptr, ptr, i32, i32, i32, i32, i32, i32, i32, i32, ptr, i32, i32, i8, i8, i8, i8, [200 x i16], [60 x i16], [60 x i16] }
%struct.lua_State = type { %struct.GCRef, i8, i8, i8, i8, %struct.MRef, %struct.GCRef, ptr, ptr, %struct.MRef, %struct.MRef, %struct.GCRef, %struct.GCRef, ptr, i32 }
%struct.GCRef = type { i64 }
%struct.global_State = type { ptr, ptr, %struct.GCState, %struct.GCstr, i8, i8, i8, i8, %struct.StrInternState, i32, %struct.GCRef, %struct.SBuf, %union.TValue, %union.TValue, %struct.Node, %union.TValue, %struct.GCupval, i32, i32, ptr, ptr, ptr, i32, i32, %struct.GCRef, %struct.MRef, %struct.MRef, %struct.PRNGState, [39 x %struct.GCRef] }
%struct.GCState = type { i64, i64, i8, i8, i8, i8, i32, %struct.GCRef, %struct.MRef, %struct.GCRef, %struct.GCRef, %struct.GCRef, %struct.GCRef, i64, i64, i32, i32, %struct.MRef }
%struct.GCstr = type { %struct.GCRef, i8, i8, i8, i8, i32, i32, i32 }
%struct.StrInternState = type { ptr, i32, i32, i32, i8, i8, i8, i8, i64 }
%struct.Node = type { %union.TValue, %union.TValue, %struct.MRef }
%struct.GCupval = type { %struct.GCRef, i8, i8, i8, i8, %union.anon, %struct.MRef, i32 }
%union.anon = type { %struct.anon.1 }
%struct.anon.1 = type { %struct.GCRef, %struct.GCRef }
%struct.PRNGState = type { [4 x i64] }

; Function Attrs: nounwind uwtable
define hidden ptr @lj_parse_keepstr(ptr noundef %0, ptr noundef %1, i64 noundef %2) #0 {
  %4 = alloca ptr, align 8
  %5 = alloca ptr, align 8
  %6 = alloca i64, align 8
  %7 = alloca ptr, align 8
  %8 = alloca ptr, align 8
  %9 = alloca ptr, align 8
  store ptr %0, ptr %4, align 8, !tbaa !4
  store ptr %1, ptr %5, align 8, !tbaa !9
  store i64 %2, ptr %6, align 8, !tbaa !11
  call void @llvm.lifetime.start.p0(i64 8, ptr %7) #11
  %10 = load ptr, ptr %4, align 8, !tbaa !4
  %11 = getelementptr inbounds nuw %struct.LexState, ptr %10, i32 0, i32 1
  %12 = load ptr, ptr %11, align 8, !tbaa !13
  store ptr %12, ptr %7, align 8, !tbaa !23
  call void @llvm.lifetime.start.p0(i64 8, ptr %8) #11
  %13 = load ptr, ptr %7, align 8, !tbaa !23
  %14 = load ptr, ptr %5, align 8, !tbaa !9
  %15 = load i64, ptr %6, align 8, !tbaa !11
  %16 = call ptr @lj_str_new(ptr noundef %13, ptr noundef %14, i64 noundef %15)
  store ptr %16, ptr %8, align 8, !tbaa !24
  call void @llvm.lifetime.start.p0(i64 8, ptr %9) #11
  %17 = load ptr, ptr %7, align 8, !tbaa !23
  %18 = load ptr, ptr %4, align 8, !tbaa !4
  %19 = getelementptr inbounds nuw %struct.LexState, ptr %18, i32 0, i32 0
  %20 = load ptr, ptr %19, align 8, !tbaa !25
  %21 = getelementptr inbounds nuw %struct.FuncState, ptr %20, i32 0, i32 0
  %22 = load ptr, ptr %21, align 8, !tbaa !26
  %23 = load ptr, ptr %8, align 8, !tbaa !24
  %24 = call ptr @lj_tab_setstr(ptr noundef %17, ptr noundef %22, ptr noundef %23)
  store ptr %24, ptr %9, align 8, !tbaa !30
  %25 = load ptr, ptr %9, align 8, !tbaa !30
  %26 = load i64, ptr %25, align 8, !tbaa !32
  %27 = icmp eq i64 %26, -1
  br i1 %27, label %28, label %30

28:                                               ; preds = %3
  %29 = load ptr, ptr %9, align 8, !tbaa !30
  store i64 -281474976710657, ptr %29, align 8, !tbaa !32
  br label %30

30:                                               ; preds = %28, %3
  %31 = load ptr, ptr %7, align 8, !tbaa !23
  %32 = getelementptr inbounds nuw %struct.lua_State, ptr %31, i32 0, i32 5
  %33 = getelementptr inbounds nuw %struct.MRef, ptr %32, i32 0, i32 0
  %34 = load i64, ptr %33, align 8, !tbaa !33
  %35 = inttoptr i64 %34 to ptr
  %36 = getelementptr inbounds nuw %struct.global_State, ptr %35, i32 0, i32 2
  %37 = getelementptr inbounds nuw %struct.GCState, ptr %36, i32 0, i32 0
  %38 = load i64, ptr %37, align 8, !tbaa !36
  %39 = load ptr, ptr %7, align 8, !tbaa !23
  %40 = getelementptr inbounds nuw %struct.lua_State, ptr %39, i32 0, i32 5
  %41 = getelementptr inbounds nuw %struct.MRef, ptr %40, i32 0, i32 0
  %42 = load i64, ptr %41, align 8, !tbaa !33
  %43 = inttoptr i64 %42 to ptr
  %44 = getelementptr inbounds nuw %struct.global_State, ptr %43, i32 0, i32 2
  %45 = getelementptr inbounds nuw %struct.GCState, ptr %44, i32 0, i32 1
  %46 = load i64, ptr %45, align 8, !tbaa !45
  %47 = icmp uge i64 %38, %46
  %48 = xor i1 %47, true
  %49 = xor i1 %48, true
  %50 = zext i1 %49 to i32
  %51 = sext i32 %50 to i64
  %52 = call i64 @llvm.expect.i64(i64 %51, i64 0)
  %53 = icmp ne i64 %52, 0
  br i1 %53, label %54, label %57

54:                                               ; preds = %30
  %55 = load ptr, ptr %7, align 8, !tbaa !23
  %56 = call i32 @lj_gc_step(ptr noundef %55)
  br label %57

57:                                               ; preds = %54, %30
  %58 = load ptr, ptr %8, align 8, !tbaa !24
  call void @llvm.lifetime.end.p0(i64 8, ptr %9) #11
  call void @llvm.lifetime.end.p0(i64 8, ptr %8) #11
  call void @llvm.lifetime.end.p0(i64 8, ptr %7) #11
  ret ptr %58
}