; Function Attrs: nounwind uwtable
define hidden noundef ptr @lj_parse_keepstr(ptr noundef readonly captures(none) %0, ptr noundef %1, i64 noundef %2) local_unnamed_addr #0 {
  %4 = getelementptr inbounds nuw i8, ptr %0, i64 8
  %5 = load ptr, ptr %4, align 8, !tbaa !4
  %6 = tail call ptr @lj_str_new(ptr noundef %5, ptr noundef %1, i64 noundef %2) #11
  %7 = load ptr, ptr %0, align 8, !tbaa !19
  %8 = load ptr, ptr %7, align 8, !tbaa !20
  %9 = tail call ptr @lj_tab_setstr(ptr noundef %5, ptr noundef %8, ptr noundef %6) #11
  %10 = load i64, ptr %9, align 8, !tbaa !25
  %11 = icmp eq i64 %10, -1
  br i1 %11, label %12, label %13

12:                                               ; preds = %3
  store i64 -281474976710657, ptr %9, align 8, !tbaa !25
  br label %13

13:                                               ; preds = %12, %3
  %14 = getelementptr inbounds nuw i8, ptr %5, i64 16
  %15 = load i64, ptr %14, align 8, !tbaa !26
  %16 = inttoptr i64 %15 to ptr
  %17 = getelementptr inbounds nuw i8, ptr %16, i64 16
  %18 = load i64, ptr %17, align 8, !tbaa !30
  %19 = getelementptr inbounds nuw i8, ptr %16, i64 24
  %20 = load i64, ptr %19, align 8, !tbaa !39
  %.not = icmp ult i64 %18, %20
  br i1 %.not, label %23, label %21, !prof !40

21:                                               ; preds = %13
  %22 = tail call i32 @lj_gc_step(ptr noundef nonnull %5) #11
  br label %23

23:                                               ; preds = %21, %13
  ret ptr %6
}